target datalayout = "e-m:e-p270:32:32-p271:32:32-p272:64:64-i64:64-i128:128-f80:128-n8:16:32:64-S128"
target triple = "x86_64-pc-linux-gnu"

%struct.expert_field = type { i32, i32 }

@hf_pcep_svec_flags_l = internal global i32 0, align 4
@hf_pcep_svec_flags_n = internal global i32 0, align 4
@hf_pcep_svec_flags_s = internal global i32 0, align 4
@hf_pcep_svec_flags_d = internal global i32 0, align 4
@hf_pcep_svec_flags_p = internal global i32 0, align 4
@hf_pcep_svec_obj_reserved = internal global i32 0, align 4
@hf_pcep_svec_obj_flags = internal global i32 0, align 4
@hf_pcep_svec_obj_request_id_number = internal global i32 0, align 4
@ett_pcep_obj_svec = internal global i32 0, align 4
@ei_pcep_subobject_bad_length = internal global %struct.expert_field zeroinitializer, align 4
@.str.1180 = private unnamed_addr constant [43 x i8] c"Bad SVEC object length %u, should be >= %u\00", align 1
@.str.1181 = private unnamed_addr constant [27 x i8] c"Request-ID-Number %u: 0x%x\00", align 1

; Function Attrs: null_pointer_is_valid sspstrong uwtable
define internal void @dissect_pcep_svec_obj(ptr noundef %0, ptr noundef %1, ptr noundef %2, i32 noundef %3, i32 noundef %4, i32 noundef %5, i32 noundef %6) #0 {
  %8 = alloca ptr, align 8
  %9 = alloca ptr, align 8
  %10 = alloca ptr, align 8
  %11 = alloca i32, align 4
  %12 = alloca i32, align 4
  %13 = alloca i32, align 4
  %14 = alloca i32, align 4
  %15 = alloca ptr, align 8
  %16 = alloca ptr, align 8
  %17 = alloca i32, align 4
  %18 = alloca i32, align 4
  %19 = alloca i32, align 4
  %20 = alloca i32, align 4
  store ptr %0, ptr %8, align 8
  store ptr %1, ptr %9, align 8
  store ptr %2, ptr %10, align 8
  store i32 %3, ptr %11, align 4
  store i32 %4, ptr %12, align 4
  store i32 %5, ptr %13, align 4
  store i32 %6, ptr %14, align 4
  call void @llvm.lifetime.start.p0(i64 8, ptr %15) #4
  call void @llvm.lifetime.start.p0(i64 8, ptr %16) #4
  call void @llvm.lifetime.start.p0(i64 4, ptr %17) #4
  call void @llvm.lifetime.start.p0(i64 4, ptr %18) #4
  call void @llvm.lifetime.start.p0(i64 4, ptr %19) #4
  %21 = load i32, ptr %12, align 4
  %22 = icmp slt i32 %21, 8
  br i1 %22, label %23, label %31

23:                                               ; preds = %7
  %24 = load ptr, ptr %8, align 8
  %25 = load ptr, ptr %9, align 8
  %26 = load ptr, ptr %10, align 8
  %27 = load i32, ptr %11, align 4
  %28 = load i32, ptr %12, align 4
  %29 = load i32, ptr %12, align 4
  %30 = call ptr (ptr, ptr, ptr, ptr, i32, i32, ptr, ...) @proto_tree_add_expert_format(ptr noundef %24, ptr noundef %25, ptr noundef @ei_pcep_subobject_bad_length, ptr noundef %26, i32 noundef %27, i32 noundef %28, ptr noundef @.str.1180, i32 noundef %29, i32 noundef 8)
  store i32 1, ptr %20, align 4
  br label %101

31:                                               ; preds = %7
  %32 = load ptr, ptr %8, align 8
  %33 = load i32, ptr @hf_pcep_svec_obj_reserved, align 4
  %34 = load ptr, ptr %10, align 8
  %35 = load i32, ptr %11, align 4
  %36 = call ptr @proto_tree_add_item(ptr noundef %32, i32 noundef %33, ptr noundef %34, i32 noundef %35, i32 noundef 1, i32 noundef 0)
  %37 = load ptr, ptr %8, align 8
  %38 = load i32, ptr @hf_pcep_svec_obj_flags, align 4
  %39 = load ptr, ptr %10, align 8
  %40 = load i32, ptr %11, align 4
  %41 = add i32 %40, 1
  %42 = call ptr @proto_tree_add_item(ptr noundef %37, i32 noundef %38, ptr noundef %39, i32 noundef %41, i32 noundef 3, i32 noundef 0)
  store ptr %42, ptr %15, align 8
  %43 = load ptr, ptr %15, align 8
  %44 = load i32, ptr @ett_pcep_obj_svec, align 4
  %45 = call ptr @proto_item_add_subtree(ptr noundef %43, i32 noundef %44)
  store ptr %45, ptr %16, align 8
  %46 = load ptr, ptr %16, align 8
  %47 = load i32, ptr @hf_pcep_svec_flags_l, align 4
  %48 = load ptr, ptr %10, align 8
  %49 = load i32, ptr %11, align 4
  %50 = add i32 %49, 1
  %51 = call ptr @proto_tree_add_item(ptr noundef %46, i32 noundef %47, ptr noundef %48, i32 noundef %50, i32 noundef 3, i32 noundef 0)
  %52 = load ptr, ptr %16, align 8
  %53 = load i32, ptr @hf_pcep_svec_flags_n, align 4
  %54 = load ptr, ptr %10, align 8
  %55 = load i32, ptr %11, align 4
  %56 = add i32 %55, 1
  %57 = call ptr @proto_tree_add_item(ptr noundef %52, i32 noundef %53, ptr noundef %54, i32 noundef %56, i32 noundef 3, i32 noundef 0)
  %58 = load ptr, ptr %16, align 8
  %59 = load i32, ptr @hf_pcep_svec_flags_s, align 4
  %60 = load ptr, ptr %10, align 8
  %61 = load i32, ptr %11, align 4
  %62 = add i32 %61, 1
  %63 = call ptr @proto_tree_add_item(ptr noundef %58, i32 noundef %59, ptr noundef %60, i32 noundef %62, i32 noundef 3, i32 noundef 0)
  %64 = load ptr, ptr %16, align 8
  %65 = load i32, ptr @hf_pcep_svec_flags_d, align 4
  %66 = load ptr, ptr %10, align 8
  %67 = load i32, ptr %11, align 4
  %68 = add i32 %67, 1
  %69 = call ptr @proto_tree_add_item(ptr noundef %64, i32 noundef %65, ptr noundef %66, i32 noundef %68, i32 noundef 3, i32 noundef 0)
  %70 = load ptr, ptr %16, align 8
  %71 = load i32, ptr @hf_pcep_svec_flags_p, align 4
  %72 = load ptr, ptr %10, align 8
  %73 = load i32, ptr %11, align 4
  %74 = add i32 %73, 1
  %75 = call ptr @proto_tree_add_item(ptr noundef %70, i32 noundef %71, ptr noundef %72, i32 noundef %74, i32 noundef 3, i32 noundef 0)
  store i32 1, ptr %17, align 4
  store i32 4, ptr %18, align 4
  br label %76

76:                                               ; preds = %81, %31
  %77 = load i32, ptr %18, align 4
  %78 = load i32, ptr %12, align 4
  %79 = sub i32 %78, 4
  %80 = icmp slt i32 %77, %79
  br i1 %80, label %81, label %100

81:                                               ; preds = %76
  %82 = load ptr, ptr %10, align 8
  %83 = load i32, ptr %11, align 4
  %84 = load i32, ptr %18, align 4
  %85 = add i32 %83, %84
  %86 = call i32 @tvb_get_ntohl(ptr noundef %82, i32 noundef %85)
  store i32 %86, ptr %19, align 4
  %87 = load ptr, ptr %8, align 8
  %88 = load i32, ptr @hf_pcep_svec_obj_request_id_number, align 4
  %89 = load ptr, ptr %10, align 8
  %90 = load i32, ptr %11, align 4
  %91 = load i32, ptr %18, align 4
  %92 = add i32 %90, %91
  %93 = load i32, ptr %19, align 4
  %94 = load i32, ptr %17, align 4
  %95 = add i32 %94, 1
  store i32 %95, ptr %17, align 4
  %96 = load i32, ptr %19, align 4
  %97 = call ptr (ptr, i32, ptr, i32, i32, i32, ptr, ...) @proto_tree_add_uint_format(ptr noundef %87, i32 noundef %88, ptr noundef %89, i32 noundef %92, i32 noundef 4, i32 noundef %93, ptr noundef @.str.1181, i32 noundef %94, i32 noundef %96)
  %98 = load i32, ptr %18, align 4
  %99 = add i32 %98, 4
  store i32 %99, ptr %18, align 4
  br label %76, !llvm.loop !13

100:                                              ; preds = %76
  store i32 0, ptr %20, align 4
  br label %101

101:                                              ; preds = %100, %23
  call void @llvm.lifetime.end.p0(i64 4, ptr %19) #4
  call void @llvm.lifetime.end.p0(i64 4, ptr %18) #4
  call void @llvm.lifetime.end.p0(i64 4, ptr %17) #4
  call void @llvm.lifetime.end.p0(i64 8, ptr %16) #4
  call void @llvm.lifetime.end.p0(i64 8, ptr %15) #4
  %102 = load i32, ptr %20, align 4
  switch i32 %102, label %104 [
    i32 0, label %103
    i32 1, label %103
  ]

103:                                              ; preds = %101, %101
  ret void

104:                                              ; preds = %101
  unreachable
}