; Function Attrs: null_pointer_is_valid sspstrong uwtable
define internal void @dissect_pcep_svec_obj(ptr noundef %0, ptr noundef %1, ptr noundef %2, i32 noundef %3, i32 noundef %4, i32 %5, i32 %6) #0 {
  %8 = icmp slt i32 %4, 8
  br i1 %8, label %9, label %11

9:                                                ; preds = %7
  %10 = tail call ptr (ptr, ptr, ptr, ptr, i32, i32, ptr, ...) @proto_tree_add_expert_format(ptr noundef %0, ptr noundef %1, ptr noundef nonnull @ei_pcep_subobject_bad_length, ptr noundef %2, i32 noundef %3, i32 noundef %4, ptr noundef nonnull @.str.1180, i32 noundef %4, i32 noundef 8)
  br label %.loopexit

11:                                               ; preds = %7
  %12 = load i32, ptr @hf_pcep_svec_obj_reserved, align 4
  %13 = tail call ptr @proto_tree_add_item(ptr noundef %0, i32 noundef %12, ptr noundef %2, i32 noundef %3, i32 noundef 1, i32 noundef 0)
  %14 = load i32, ptr @hf_pcep_svec_obj_flags, align 4
  %15 = add i32 %3, 1
  %16 = tail call ptr @proto_tree_add_item(ptr noundef %0, i32 noundef %14, ptr noundef %2, i32 noundef %15, i32 noundef 3, i32 noundef 0)
  %17 = load i32, ptr @ett_pcep_obj_svec, align 4
  %18 = tail call ptr @proto_item_add_subtree(ptr noundef %16, i32 noundef %17)
  %19 = load i32, ptr @hf_pcep_svec_flags_l, align 4
  %20 = tail call ptr @proto_tree_add_item(ptr noundef %18, i32 noundef %19, ptr noundef %2, i32 noundef %15, i32 noundef 3, i32 noundef 0)
  %21 = load i32, ptr @hf_pcep_svec_flags_n, align 4
  %22 = tail call ptr @proto_tree_add_item(ptr noundef %18, i32 noundef %21, ptr noundef %2, i32 noundef %15, i32 noundef 3, i32 noundef 0)
  %23 = load i32, ptr @hf_pcep_svec_flags_s, align 4
  %24 = tail call ptr @proto_tree_add_item(ptr noundef %18, i32 noundef %23, ptr noundef %2, i32 noundef %15, i32 noundef 3, i32 noundef 0)
  %25 = load i32, ptr @hf_pcep_svec_flags_d, align 4
  %26 = tail call ptr @proto_tree_add_item(ptr noundef %18, i32 noundef %25, ptr noundef %2, i32 noundef %15, i32 noundef 3, i32 noundef 0)
  %27 = load i32, ptr @hf_pcep_svec_flags_p, align 4
  %28 = tail call ptr @proto_tree_add_item(ptr noundef %18, i32 noundef %27, ptr noundef %2, i32 noundef %15, i32 noundef 3, i32 noundef 0)
  %29 = add nsw i32 %4, -4
  %.not = icmp eq i32 %4, 8
  br i1 %.not, label %.loopexit, label %.lr.ph

.lr.ph:                                           ; preds = %11, %.lr.ph
  %.044 = phi i32 [ %33, %.lr.ph ], [ 1, %11 ]
  %.04143 = phi i32 [ %35, %.lr.ph ], [ 4, %11 ]
  %30 = add i32 %.04143, %3
  %31 = tail call i32 @tvb_get_ntohl(ptr noundef %2, i32 noundef %30)
  %32 = load i32, ptr @hf_pcep_svec_obj_request_id_number, align 4
  %33 = add i32 %.044, 1
  %34 = tail call ptr (ptr, i32, ptr, i32, i32, i32, ptr, ...) @proto_tree_add_uint_format(ptr noundef %0, i32 noundef %32, ptr noundef %2, i32 noundef %30, i32 noundef 4, i32 noundef %31, ptr noundef nonnull @.str.1181, i32 noundef %.044, i32 noundef %31)
  %35 = add nuw nsw i32 %.04143, 4
  %36 = icmp slt i32 %35, %29
  br i1 %36, label %.lr.ph, label %.loopexit, !llvm.loop !14

.loopexit:                                        ; preds = %.lr.ph, %11, %9
  ret void
}